; ModuleID = '38/1282.c'
source_filename = "38/1282.c"
target datalayout = "e-m:e-p270:32:32-p271:32:32-p272:64:64-i64:64-f80:128-n8:16:32:64-S128"
target triple = "x86_64-pc-linux-gnu"

@.str = private unnamed_addr constant [3 x i8] c"%d\00", align 1
@.str.1 = private unnamed_addr constant [4 x i8] c"%lf\00", align 1
@.str.2 = private unnamed_addr constant [7 x i8] c"%.5lf\0A\00", align 1

; Function Attrs: noinline nounwind uwtable
define dso_local i32 @main(i32 %0, i8** %1) #0 {
  %3 = alloca i32, align 4
  %4 = alloca i32, align 4
  %5 = alloca i8**, align 8
  %6 = alloca i32, align 4
  %7 = alloca [100 x i32], align 16
  %8 = alloca [100 x double], align 16
  %9 = alloca [100 x double], align 16
  %10 = alloca [100 x [100 x double]], align 16
  %11 = alloca i32, align 4
  %12 = alloca i32, align 4
  store i32 0, i32* %3, align 4
  store i32 %0, i32* %4, align 4
  store i8** %1, i8*** %5, align 8
  %13 = call i32 (i8*, ...) @__isoc99_scanf(i8* getelementptr inbounds ([3 x i8], [3 x i8]* @.str, i64 0, i64 0), i32* %6)
  store i32 0, i32* %11, align 4
  br label %14

14:                                               ; preds = %42, %2
  %15 = load i32, i32* %11, align 4
  %16 = load i32, i32* %6, align 4
  %17 = icmp slt i32 %15, %16
  br i1 %17, label %18, label %45

18:                                               ; preds = %14
  %19 = load i32, i32* %11, align 4
  %20 = sext i32 %19 to i64
  %21 = getelementptr inbounds [100 x i32], [100 x i32]* %7, i64 0, i64 %20
  %22 = call i32 (i8*, ...) @__isoc99_scanf(i8* getelementptr inbounds ([3 x i8], [3 x i8]* @.str, i64 0, i64 0), i32* %21)
  store i32 0, i32* %12, align 4
  br label %23

23:                                               ; preds = %38, %18
  %24 = load i32, i32* %12, align 4
  %25 = load i32, i32* %11, align 4
  %26 = sext i32 %25 to i64
  %27 = getelementptr inbounds [100 x i32], [100 x i32]* %7, i64 0, i64 %26
  %28 = load i32, i32* %27, align 4
  %29 = icmp slt i32 %24, %28
  br i1 %29, label %30, label %41

30:                                               ; preds = %23
  %31 = load i32, i32* %11, align 4
  %32 = sext i32 %31 to i64
  %33 = getelementptr inbounds [100 x [100 x double]], [100 x [100 x double]]* %10, i64 0, i64 %32
  %34 = load i32, i32* %12, align 4
  %35 = sext i32 %34 to i64
  %36 = getelementptr inbounds [100 x double], [100 x double]* %33, i64 0, i64 %35
  %37 = call i32 (i8*, ...) @__isoc99_scanf(i8* getelementptr inbounds ([4 x i8], [4 x i8]* @.str.1, i64 0, i64 0), double* %36)
  br label %38

38:                                               ; preds = %30
  %39 = load i32, i32* %12, align 4
  %40 = add nsw i32 %39, 1
  store i32 %40, i32* %12, align 4
  br label %23

41:                                               ; preds = %23
  br label %42

42:                                               ; preds = %41
  %43 = load i32, i32* %11, align 4
  %44 = add nsw i32 %43, 1
  store i32 %44, i32* %11, align 4
  br label %14

45:                                               ; preds = %14
  store i32 0, i32* %11, align 4
  br label %46

46:                                               ; preds = %143, %45
  %47 = load i32, i32* %11, align 4
  %48 = load i32, i32* %6, align 4
  %49 = icmp slt i32 %47, %48
  br i1 %49, label %50, label %146

50:                                               ; preds = %46
  %51 = load i32, i32* %11, align 4
  %52 = sext i32 %51 to i64
  %53 = getelementptr inbounds [100 x double], [100 x double]* %8, i64 0, i64 %52
  store double 0.000000e+00, double* %53, align 8
  %54 = load i32, i32* %11, align 4
  %55 = sext i32 %54 to i64
  %56 = getelementptr inbounds [100 x double], [100 x double]* %9, i64 0, i64 %55
  store double 0.000000e+00, double* %56, align 8
  store i32 0, i32* %12, align 4
  br label %57

57:                                               ; preds = %77, %50
  %58 = load i32, i32* %12, align 4
  %59 = load i32, i32* %11, align 4
  %60 = sext i32 %59 to i64
  %61 = getelementptr inbounds [100 x i32], [100 x i32]* %7, i64 0, i64 %60
  %62 = load i32, i32* %61, align 4
  %63 = icmp slt i32 %58, %62
  br i1 %63, label %64, label %80

64:                                               ; preds = %57
  %65 = load i32, i32* %11, align 4
  %66 = sext i32 %65 to i64
  %67 = getelementptr inbounds [100 x [100 x double]], [100 x [100 x double]]* %10, i64 0, i64 %66
  %68 = load i32, i32* %12, align 4
  %69 = sext i32 %68 to i64
  %70 = getelementptr inbounds [100 x double], [100 x double]* %67, i64 0, i64 %69
  %71 = load double, double* %70, align 8
  %72 = load i32, i32* %11, align 4
  %73 = sext i32 %72 to i64
  %74 = getelementptr inbounds [100 x double], [100 x double]* %8, i64 0, i64 %73
  %75 = load double, double* %74, align 8
  %76 = fadd double %75, %71
  store double %76, double* %74, align 8
  br label %77

77:                                               ; preds = %64
  %78 = load i32, i32* %12, align 4
  %79 = add nsw i32 %78, 1
  store i32 %79, i32* %12, align 4
  br label %57

80:                                               ; preds = %57
  %81 = load i32, i32* %11, align 4
  %82 = sext i32 %81 to i64
  %83 = getelementptr inbounds [100 x double], [100 x double]* %8, i64 0, i64 %82
  %84 = load double, double* %83, align 8
  %85 = load i32, i32* %11, align 4
  %86 = sext i32 %85 to i64
  %87 = getelementptr inbounds [100 x i32], [100 x i32]* %7, i64 0, i64 %86
  %88 = load i32, i32* %87, align 4
  %89 = sitofp i32 %88 to double
  %90 = fdiv double %84, %89
  %91 = load i32, i32* %11, align 4
  %92 = sext i32 %91 to i64
  %93 = getelementptr inbounds [100 x double], [100 x double]* %8, i64 0, i64 %92
  store double %90, double* %93, align 8
  store i32 0, i32* %12, align 4
  br label %94

94:                                               ; preds = %120, %80
  %95 = load i32, i32* %12, align 4
  %96 = load i32, i32* %11, align 4
  %97 = sext i32 %96 to i64
  %98 = getelementptr inbounds [100 x i32], [100 x i32]* %7, i64 0, i64 %97
  %99 = load i32, i32* %98, align 4
  %100 = icmp slt i32 %95, %99
  br i1 %100, label %101, label %123

101:                                              ; preds = %94
  %102 = load i32, i32* %11, align 4
  %103 = sext i32 %102 to i64
  %104 = getelementptr inbounds [100 x [100 x double]], [100 x [100 x double]]* %10, i64 0, i64 %103
  %105 = load i32, i32* %12, align 4
  %106 = sext i32 %105 to i64
  %107 = getelementptr inbounds [100 x double], [100 x double]* %104, i64 0, i64 %106
  %108 = load double, double* %107, align 8
  %109 = load i32, i32* %11, align 4
  %110 = sext i32 %109 to i64
  %111 = getelementptr inbounds [100 x double], [100 x double]* %8, i64 0, i64 %110
  %112 = load double, double* %111, align 8
  %113 = fsub double %108, %112
  %114 = call double @pow(double %113, double 2.000000e+00) #3
  %115 = load i32, i32* %11, align 4
  %116 = sext i32 %115 to i64
  %117 = getelementptr inbounds [100 x double], [100 x double]* %9, i64 0, i64 %116
  %118 = load double, double* %117, align 8
  %119 = fadd double %118, %114
  store double %119, double* %117, align 8
  br label %120

120:                                              ; preds = %101
  %121 = load i32, i32* %12, align 4
  %122 = add nsw i32 %121, 1
  store i32 %122, i32* %12, align 4
  br label %94

123:                                              ; preds = %94
  %124 = load i32, i32* %11, align 4
  %125 = sext i32 %124 to i64
  %126 = getelementptr inbounds [100 x double], [100 x double]* %9, i64 0, i64 %125
  %127 = load double, double* %126, align 8
  %128 = load i32, i32* %11, align 4
  %129 = sext i32 %128 to i64
  %130 = getelementptr inbounds [100 x i32], [100 x i32]* %7, i64 0, i64 %129
  %131 = load i32, i32* %130, align 4
  %132 = sitofp i32 %131 to double
  %133 = fdiv double %127, %132
  %134 = call double @sqrt(double %133) #3
  %135 = load i32, i32* %11, align 4
  %136 = sext i32 %135 to i64
  %137 = getelementptr inbounds [100 x double], [100 x double]* %9, i64 0, i64 %136
  store double %134, double* %137, align 8
  %138 = load i32, i32* %11, align 4
  %139 = sext i32 %138 to i64
  %140 = getelementptr inbounds [100 x double], [100 x double]* %9, i64 0, i64 %139
  %141 = load double, double* %140, align 8
  %142 = call i32 (i8*, ...) @printf(i8* getelementptr inbounds ([7 x i8], [7 x i8]* @.str.2, i64 0, i64 0), double %141)
  br label %143

143:                                              ; preds = %123
  %144 = load i32, i32* %11, align 4
  %145 = add nsw i32 %144, 1
  store i32 %145, i32* %11, align 4
  br label %46

146:                                              ; preds = %46
  ret i32 0
}

declare dso_local i32 @__isoc99_scanf(i8*, ...) #1

; Function Attrs: nounwind
declare dso_local double @pow(double, double) #2

; Function Attrs: nounwind
declare dso_local double @sqrt(double) #2

declare dso_local i32 @printf(i8*, ...) #1


!llvm.module.flags = !{!0}
!llvm.ident = !{!1}

!0 = !{i32 1, !"wchar_size", i32 4}
!1 = !{!"clang version 10.0.0-4ubuntu1 "}
